; Function Attrs: nofree nosync nounwind memory(readwrite, inaccessiblemem: none) uwtable
define range(i32 0, 2) i32 @Sbc_ManAddInternalToPath_rec(ptr noundef readonly captures(none) %0, i32 noundef %1, ptr noundef readonly captures(none) %2) local_unnamed_addr #0 {
  %4 = getelementptr i8, ptr %0, i64 176
  %.val = load i32, ptr %4, align 8, !tbaa !3
  %5 = getelementptr i8, ptr %0, i64 616
  %.val30 = load ptr, ptr %5, align 8, !tbaa !28
  %6 = sext i32 %1 to i64
  %7 = getelementptr inbounds i32, ptr %.val30, i64 %6
  %8 = load i32, ptr %7, align 4, !tbaa !29
  %.not = icmp eq i32 %8, %.val
  br i1 %.not, label %9, label %18

9:                                                ; preds = %3
  %10 = getelementptr i8, ptr %2, i64 8
  %.val31 = load ptr, ptr %10, align 8, !tbaa !30
  %11 = ashr i32 %1, 5
  %12 = sext i32 %11 to i64
  %13 = getelementptr inbounds i32, ptr %.val31, i64 %12
  %14 = load i32, ptr %13, align 4, !tbaa !29
  %15 = and i32 %1, 31
  %16 = lshr i32 %14, %15
  %17 = and i32 %16, 1
  br label %.critedge.thread

18:                                               ; preds = %3
  store i32 %.val, ptr %7, align 4, !tbaa !29
  %19 = getelementptr i8, ptr %0, i64 32
  %.val35 = load ptr, ptr %19, align 8, !tbaa !32
  %20 = getelementptr inbounds %struct.Gia_Obj_t_, ptr %.val35, i64 %6
  %.val36 = load i64, ptr %20, align 4
  %21 = and i64 %.val36, 2684354559
  %narrow.i.not = icmp eq i64 %21, 2684354559
  br i1 %narrow.i.not, label %30, label %.preheader

.preheader:                                       ; preds = %18
  %22 = getelementptr i8, ptr %0, i64 264
  %.val3740 = load ptr, ptr %22, align 8, !tbaa !33
  %23 = getelementptr i8, ptr %.val3740, i64 8
  %.val37.val41 = load ptr, ptr %23, align 8, !tbaa !34
  %24 = getelementptr inbounds i32, ptr %.val37.val41, i64 %6
  %25 = load i32, ptr %24, align 4, !tbaa !29
  %26 = sext i32 %25 to i64
  %27 = getelementptr inbounds i32, ptr %.val37.val41, i64 %26
  %28 = load i32, ptr %27, align 4, !tbaa !29
  %29 = icmp sgt i32 %28, 0
  br i1 %29, label %.lr.ph, label %.critedge.thread

30:                                               ; preds = %18
  %31 = getelementptr i8, ptr %2, i64 8
  %.val32 = load ptr, ptr %31, align 8, !tbaa !30
  %32 = ashr i32 %1, 5
  %33 = sext i32 %32 to i64
  %34 = getelementptr inbounds i32, ptr %.val32, i64 %33
  %35 = load i32, ptr %34, align 4, !tbaa !29
  %36 = and i32 %1, 31
  %37 = lshr i32 %35, %36
  %38 = and i32 %37, 1
  br label %.critedge.thread

.lr.ph:                                           ; preds = %.preheader, %.lr.ph
  %indvars.iv = phi i64 [ %indvars.iv.next, %.lr.ph ], [ 0, %.preheader ]
  %39 = phi ptr [ %49, %.lr.ph ], [ %27, %.preheader ]
  %.043 = phi i32 [ %44, %.lr.ph ], [ 0, %.preheader ]
  %40 = getelementptr inbounds nuw i8, ptr %39, i64 4
  %41 = getelementptr inbounds nuw i32, ptr %40, i64 %indvars.iv
  %42 = load i32, ptr %41, align 4, !tbaa !29
  %43 = tail call i32 @Sbc_ManAddInternalToPath_rec(ptr noundef nonnull %0, i32 noundef %42, ptr noundef %2)
  %44 = or i32 %43, %.043
  %indvars.iv.next = add nuw nsw i64 %indvars.iv, 1
  %.val37 = load ptr, ptr %22, align 8, !tbaa !33
  %45 = getelementptr i8, ptr %.val37, i64 8
  %.val37.val = load ptr, ptr %45, align 8, !tbaa !34
  %46 = getelementptr inbounds i32, ptr %.val37.val, i64 %6
  %47 = load i32, ptr %46, align 4, !tbaa !29
  %48 = sext i32 %47 to i64
  %49 = getelementptr inbounds i32, ptr %.val37.val, i64 %48
  %50 = load i32, ptr %49, align 4, !tbaa !29
  %51 = sext i32 %50 to i64
  %52 = icmp slt i64 %indvars.iv.next, %51
  br i1 %52, label %.lr.ph, label %.critedge, !llvm.loop !35

.critedge:                                        ; preds = %.lr.ph
  %.not29 = icmp eq i32 %44, 0
  br i1 %.not29, label %.critedge.thread, label %53

53:                                               ; preds = %.critedge
  %54 = getelementptr i8, ptr %2, i64 8
  %.val39 = load ptr, ptr %54, align 8, !tbaa !30
  %55 = and i32 %1, 31
  %56 = shl nuw i32 1, %55
  %57 = ashr i32 %1, 5
  %58 = sext i32 %57 to i64
  %59 = getelementptr inbounds i32, ptr %.val39, i64 %58
  %60 = load i32, ptr %59, align 4, !tbaa !29
  %61 = or i32 %60, %56
  store i32 %61, ptr %59, align 4, !tbaa !29
  br label %.critedge.thread

.critedge.thread:                                 ; preds = %.preheader, %.critedge, %53, %30, %9
  %.026 = phi i32 [ %17, %9 ], [ %38, %30 ], [ %44, %53 ], [ 0, %.critedge ], [ 0, %.preheader ]
  ret i32 %.026
}